Certificate:
    Data:
        Version: 1 (0x0)
        Serial Number: 206 (0xce)
    Signature Algorithm: md5WithRSAEncryption
        Issuer: C=SG, ST=Singapore, L=Singapore, O=SUTD, OU=SUTD, CN=Benjamin Kang/emailAddress=webby1111@hotmail.com
        Validity
            Not Before: Apr  2 12:19:07 2018 GMT
            Not After : Apr  2 12:19:07 2019 GMT
        Subject: C=SG, ST=Singapore, L=Singapore, O=SUTD, OU=ISTD, CN=Nightzsky/emailAddress=leesei_1996@hotmail.com
        Subject Public Key Info:
            Public Key Algorithm: rsaEncryption
                Public-Key: (1024 bit)
                Modulus:
                    00:d6:0f:47:18:dc:9e:5e:45:5f:ed:4e:b3:5c:4b:
                    06:e1:0a:33:6e:da:69:4e:c5:c6:1c:67:9c:cd:e6:
                    c4:5d:5d:f4:df:55:09:13:9e:b0:62:c2:eb:d1:e4:
                    4b:5a:b1:6b:17:04:59:3c:3f:af:cc:b2:bd:a5:d0:
                    5c:2d:de:7c:cd:7e:2b:1f:48:0e:de:47:2f:fe:94:
                    1f:c3:4a:97:69:6f:e2:c2:d9:de:02:06:24:c0:6d:
                    7d:d8:37:c8:29:5d:bd:a5:7b:f0:91:4c:87:db:77:
                    de:d5:90:4a:4b:e3:33:f2:e8:14:87:bc:ce:a3:94:
                    73:73:f0:9f:b8:29:34:12:db
                Exponent: 65537 (0x10001)
    Signature Algorithm: md5WithRSAEncryption
         87:88:5c:9b:f0:de:f8:de:3e:c3:7c:3d:81:30:ad:4e:fd:a6:
         f0:3e:a9:75:d7:04:dd:05:6e:86:21:69:fb:76:50:0d:ec:92:
         87:41:59:6a:ae:f7:22:1c:97:c7:b0:98:75:36:5d:9e:c5:19:
         db:57:36:89:74:aa:44:2c:b6:46:1f:f0:3a:4a:a4:2d:a9:50:
         d8:d5:fc:06:28:a9:24:58:38:d5:67:f5:37:d0:2e:2a:6c:fa:
         00:77:da:74:c6:b9:7f:2f:4e:63:58:8b:c9:b0:ec:bd:42:b0:
         9f:7d:25:19:2e:98:c0:ac:f5:8c:c5:c3:5c:2c:da:c2:54:1b:
         84:de
-----BEGIN CERTIFICATE-----
MIICkjCCAfsCAgDOMA0GCSqGSIb3DQEBBAUAMIGRMQswCQYDVQQGEwJTRzESMBAG
A1UECBMJU2luZ2Fwb3JlMRIwEAYDVQQHEwlTaW5nYXBvcmUxDTALBgNVBAoTBFNV
VEQxDTALBgNVBAsTBFNVVEQxFjAUBgNVBAMTDUJlbmphbWluIEthbmcxJDAiBgkq
hkiG9w0BCQEWFXdlYmJ5MTExMUBob3RtYWlsLmNvbTAeFw0xODA0MDIxMjE5MDda
Fw0xOTA0MDIxMjE5MDdaMIGPMQswCQYDVQQGEwJTRzESMBAGA1UECAwJU2luZ2Fw
b3JlMRIwEAYDVQQHDAlTaW5nYXBvcmUxDTALBgNVBAoMBFNVVEQxDTALBgNVBAsM
BElTVEQxEjAQBgNVBAMMCU5pZ2h0enNreTEmMCQGCSqGSIb3DQEJARYXbGVlc2Vp
XzE5OTZAaG90bWFpbC5jb20wgZ8wDQYJKoZIhvcNAQEBBQADgY0AMIGJAoGBANYP
Rxjcnl5FX+1Os1xLBuEKM27aaU7FxhxnnM3mxF1d9N9VCROesGLC69HkS1qxaxcE
WTw/r8yyvaXQXC3efM1+Kx9IDt5HL/6UH8NKl2lv4sLZ3gIGJMBtfdg3yCldvaV7
8JFMh9t33tWQSkvjM/LoFIe8zqOUc3Pwn7gpNBLbAgMBAAEwDQYJKoZIhvcNAQEE
BQADgYEAh4hcm/De+N4+w3w9gTCtTv2m8D6pddcE3QVuhiFp+3ZQDeySh0FZaq73
IhyXx7CYdTZdnsUZ21c2iXSqRCy2Rh/wOkqkLalQ2NX8BiipJFg41Wf1N9AuKmz6
AHfadMa5fy9OY1iLybDsvUKwn30lGS6YwKz1jMXDXCzawlQbhN4=
-----END CERTIFICATE-----
